; ModuleID = '9/1143.c'
source_filename = "9/1143.c"
target datalayout = "e-m:e-p270:32:32-p271:32:32-p272:64:64-i64:64-f80:128-n8:16:32:64-S128"
target triple = "x86_64-pc-linux-gnu"

@.str = private unnamed_addr constant [3 x i8] c"%d\00", align 1
@.str.1 = private unnamed_addr constant [3 x i8] c"%s\00", align 1
@.str.2 = private unnamed_addr constant [4 x i8] c"%s\0A\00", align 1

; Function Attrs: noinline nounwind uwtable
define dso_local i32 @main() #0 {
  %1 = alloca i32, align 4
  %2 = alloca [100 x i32], align 16
  %3 = alloca [100 x i32], align 16
  %4 = alloca [100 x i32], align 16
  %5 = alloca i32, align 4
  %6 = alloca i32, align 4
  %7 = alloca i32, align 4
  %8 = alloca i32, align 4
  %9 = alloca i32, align 4
  %10 = alloca i32, align 4
  %11 = alloca i32, align 4
  %12 = alloca i32, align 4
  %13 = alloca i32, align 4
  %14 = alloca i32, align 4
  %15 = alloca i32, align 4
  %16 = alloca [100 x [10 x i8]], align 16
  %17 = alloca [100 x [10 x i8]], align 16
  %18 = alloca [100 x [10 x i8]], align 16
  %19 = alloca [100 x [10 x i8]], align 16
  store i32 0, i32* %1, align 4
  store i32 1, i32* %6, align 4
  store i32 1, i32* %7, align 4
  store i32 1, i32* %8, align 4
  store i32 1, i32* %9, align 4
  %20 = call i32 (i8*, ...) @__isoc99_scanf(i8* getelementptr inbounds ([3 x i8], [3 x i8]* @.str, i64 0, i64 0), i32* %15)
  store i32 1, i32* %5, align 4
  br label %21

21:                                               ; preds = %83, %0
  %22 = load i32, i32* %5, align 4
  %23 = load i32, i32* %15, align 4
  %24 = icmp sle i32 %22, %23
  br i1 %24, label %25, label %86

25:                                               ; preds = %21
  %26 = load i32, i32* %5, align 4
  %27 = sext i32 %26 to i64
  %28 = getelementptr inbounds [100 x [10 x i8]], [100 x [10 x i8]]* %16, i64 0, i64 %27
  %29 = getelementptr inbounds [10 x i8], [10 x i8]* %28, i64 0, i64 0
  %30 = call i32 (i8*, ...) @__isoc99_scanf(i8* getelementptr inbounds ([3 x i8], [3 x i8]* @.str.1, i64 0, i64 0), i8* %29)
  %31 = load i32, i32* %5, align 4
  %32 = sext i32 %31 to i64
  %33 = getelementptr inbounds [100 x i32], [100 x i32]* %2, i64 0, i64 %32
  %34 = call i32 (i8*, ...) @__isoc99_scanf(i8* getelementptr inbounds ([3 x i8], [3 x i8]* @.str, i64 0, i64 0), i32* %33)
  %35 = load i32, i32* %5, align 4
  %36 = sext i32 %35 to i64
  %37 = getelementptr inbounds [100 x i32], [100 x i32]* %2, i64 0, i64 %36
  %38 = load i32, i32* %37, align 4
  %39 = icmp sge i32 %38, 60
  br i1 %39, label %40, label %61

40:                                               ; preds = %25
  %41 = load i32, i32* %6, align 4
  %42 = sext i32 %41 to i64
  %43 = getelementptr inbounds [100 x [10 x i8]], [100 x [10 x i8]]* %17, i64 0, i64 %42
  %44 = getelementptr inbounds [10 x i8], [10 x i8]* %43, i64 0, i64 0
  %45 = load i32, i32* %5, align 4
  %46 = sext i32 %45 to i64
  %47 = getelementptr inbounds [100 x [10 x i8]], [100 x [10 x i8]]* %16, i64 0, i64 %46
  %48 = getelementptr inbounds [10 x i8], [10 x i8]* %47, i64 0, i64 0
  %49 = call i8* @strcpy(i8* %44, i8* %48) #3
  %50 = load i32, i32* %6, align 4
  %51 = add nsw i32 %50, 1
  store i32 %51, i32* %6, align 4
  %52 = load i32, i32* %5, align 4
  %53 = sext i32 %52 to i64
  %54 = getelementptr inbounds [100 x i32], [100 x i32]* %2, i64 0, i64 %53
  %55 = load i32, i32* %54, align 4
  %56 = load i32, i32* %7, align 4
  %57 = sext i32 %56 to i64
  %58 = getelementptr inbounds [100 x i32], [100 x i32]* %3, i64 0, i64 %57
  store i32 %55, i32* %58, align 4
  %59 = load i32, i32* %7, align 4
  %60 = add nsw i32 %59, 1
  store i32 %60, i32* %7, align 4
  br label %82

61:                                               ; preds = %25
  %62 = load i32, i32* %8, align 4
  %63 = sext i32 %62 to i64
  %64 = getelementptr inbounds [100 x [10 x i8]], [100 x [10 x i8]]* %18, i64 0, i64 %63
  %65 = getelementptr inbounds [10 x i8], [10 x i8]* %64, i64 0, i64 0
  %66 = load i32, i32* %5, align 4
  %67 = sext i32 %66 to i64
  %68 = getelementptr inbounds [100 x [10 x i8]], [100 x [10 x i8]]* %16, i64 0, i64 %67
  %69 = getelementptr inbounds [10 x i8], [10 x i8]* %68, i64 0, i64 0
  %70 = call i8* @strcpy(i8* %65, i8* %69) #3
  %71 = load i32, i32* %8, align 4
  %72 = add nsw i32 %71, 1
  store i32 %72, i32* %8, align 4
  %73 = load i32, i32* %5, align 4
  %74 = sext i32 %73 to i64
  %75 = getelementptr inbounds [100 x i32], [100 x i32]* %2, i64 0, i64 %74
  %76 = load i32, i32* %75, align 4
  %77 = load i32, i32* %9, align 4
  %78 = sext i32 %77 to i64
  %79 = getelementptr inbounds [100 x i32], [100 x i32]* %4, i64 0, i64 %78
  store i32 %76, i32* %79, align 4
  %80 = load i32, i32* %9, align 4
  %81 = add nsw i32 %80, 1
  store i32 %81, i32* %9, align 4
  br label %82

82:                                               ; preds = %61, %40
  br label %83

83:                                               ; preds = %82
  %84 = load i32, i32* %5, align 4
  %85 = add nsw i32 %84, 1
  store i32 %85, i32* %5, align 4
  br label %21

86:                                               ; preds = %21
  store i32 1, i32* %10, align 4
  br label %87

87:                                               ; preds = %157, %86
  %88 = load i32, i32* %10, align 4
  %89 = load i32, i32* %6, align 4
  %90 = sub nsw i32 %89, 2
  %91 = icmp sle i32 %88, %90
  br i1 %91, label %92, label %160

92:                                               ; preds = %87
  store i32 1, i32* %11, align 4
  br label %93

93:                                               ; preds = %153, %92
  %94 = load i32, i32* %11, align 4
  %95 = load i32, i32* %6, align 4
  %96 = sub nsw i32 %95, 2
  %97 = icmp sle i32 %94, %96
  br i1 %97, label %98, label %156

98:                                               ; preds = %93
  %99 = load i32, i32* %11, align 4
  %100 = sext i32 %99 to i64
  %101 = getelementptr inbounds [100 x i32], [100 x i32]* %3, i64 0, i64 %100
  %102 = load i32, i32* %101, align 4
  %103 = load i32, i32* %11, align 4
  %104 = add nsw i32 %103, 1
  %105 = sext i32 %104 to i64
  %106 = getelementptr inbounds [100 x i32], [100 x i32]* %3, i64 0, i64 %105
  %107 = load i32, i32* %106, align 4
  %108 = icmp slt i32 %102, %107
  br i1 %108, label %109, label %152

109:                                              ; preds = %98
  %110 = load i32, i32* %11, align 4
  %111 = sext i32 %110 to i64
  %112 = getelementptr inbounds [100 x i32], [100 x i32]* %3, i64 0, i64 %111
  %113 = load i32, i32* %112, align 4
  store i32 %113, i32* %12, align 4
  %114 = load i32, i32* %11, align 4
  %115 = add nsw i32 %114, 1
  %116 = sext i32 %115 to i64
  %117 = getelementptr inbounds [100 x i32], [100 x i32]* %3, i64 0, i64 %116
  %118 = load i32, i32* %117, align 4
  %119 = load i32, i32* %11, align 4
  %120 = sext i32 %119 to i64
  %121 = getelementptr inbounds [100 x i32], [100 x i32]* %3, i64 0, i64 %120
  store i32 %118, i32* %121, align 4
  %122 = load i32, i32* %12, align 4
  %123 = load i32, i32* %11, align 4
  %124 = add nsw i32 %123, 1
  %125 = sext i32 %124 to i64
  %126 = getelementptr inbounds [100 x i32], [100 x i32]* %3, i64 0, i64 %125
  store i32 %122, i32* %126, align 4
  %127 = getelementptr inbounds [100 x [10 x i8]], [100 x [10 x i8]]* %19, i64 0, i64 1
  %128 = getelementptr inbounds [10 x i8], [10 x i8]* %127, i64 0, i64 0
  %129 = load i32, i32* %11, align 4
  %130 = sext i32 %129 to i64
  %131 = getelementptr inbounds [100 x [10 x i8]], [100 x [10 x i8]]* %17, i64 0, i64 %130
  %132 = getelementptr inbounds [10 x i8], [10 x i8]* %131, i64 0, i64 0
  %133 = call i8* @strcpy(i8* %128, i8* %132) #3
  %134 = load i32, i32* %11, align 4
  %135 = sext i32 %134 to i64
  %136 = getelementptr inbounds [100 x [10 x i8]], [100 x [10 x i8]]* %17, i64 0, i64 %135
  %137 = getelementptr inbounds [10 x i8], [10 x i8]* %136, i64 0, i64 0
  %138 = load i32, i32* %11, align 4
  %139 = add nsw i32 %138, 1
  %140 = sext i32 %139 to i64
  %141 = getelementptr inbounds [100 x [10 x i8]], [100 x [10 x i8]]* %17, i64 0, i64 %140
  %142 = getelementptr inbounds [10 x i8], [10 x i8]* %141, i64 0, i64 0
  %143 = call i8* @strcpy(i8* %137, i8* %142) #3
  %144 = load i32, i32* %11, align 4
  %145 = add nsw i32 %144, 1
  %146 = sext i32 %145 to i64
  %147 = getelementptr inbounds [100 x [10 x i8]], [100 x [10 x i8]]* %17, i64 0, i64 %146
  %148 = getelementptr inbounds [10 x i8], [10 x i8]* %147, i64 0, i64 0
  %149 = getelementptr inbounds [100 x [10 x i8]], [100 x [10 x i8]]* %19, i64 0, i64 1
  %150 = getelementptr inbounds [10 x i8], [10 x i8]* %149, i64 0, i64 0
  %151 = call i8* @strcpy(i8* %148, i8* %150) #3
  br label %152

152:                                              ; preds = %109, %98
  br label %153

153:                                              ; preds = %152
  %154 = load i32, i32* %11, align 4
  %155 = add nsw i32 %154, 1
  store i32 %155, i32* %11, align 4
  br label %93

156:                                              ; preds = %93
  br label %157

157:                                              ; preds = %156
  %158 = load i32, i32* %10, align 4
  %159 = add nsw i32 %158, 1
  store i32 %159, i32* %10, align 4
  br label %87

160:                                              ; preds = %87
  store i32 1, i32* %13, align 4
  br label %161

161:                                              ; preds = %172, %160
  %162 = load i32, i32* %13, align 4
  %163 = load i32, i32* %6, align 4
  %164 = sub nsw i32 %163, 1
  %165 = icmp sle i32 %162, %164
  br i1 %165, label %166, label %175

166:                                              ; preds = %161
  %167 = load i32, i32* %13, align 4
  %168 = sext i32 %167 to i64
  %169 = getelementptr inbounds [100 x [10 x i8]], [100 x [10 x i8]]* %17, i64 0, i64 %168
  %170 = getelementptr inbounds [10 x i8], [10 x i8]* %169, i64 0, i64 0
  %171 = call i32 (i8*, ...) @printf(i8* getelementptr inbounds ([4 x i8], [4 x i8]* @.str.2, i64 0, i64 0), i8* %170)
  br label %172

172:                                              ; preds = %166
  %173 = load i32, i32* %13, align 4
  %174 = add nsw i32 %173, 1
  store i32 %174, i32* %13, align 4
  br label %161

175:                                              ; preds = %161
  store i32 1, i32* %14, align 4
  br label %176

176:                                              ; preds = %187, %175
  %177 = load i32, i32* %14, align 4
  %178 = load i32, i32* %8, align 4
  %179 = sub nsw i32 %178, 1
  %180 = icmp sle i32 %177, %179
  br i1 %180, label %181, label %190

181:                                              ; preds = %176
  %182 = load i32, i32* %14, align 4
  %183 = sext i32 %182 to i64
  %184 = getelementptr inbounds [100 x [10 x i8]], [100 x [10 x i8]]* %18, i64 0, i64 %183
  %185 = getelementptr inbounds [10 x i8], [10 x i8]* %184, i64 0, i64 0
  %186 = call i32 (i8*, ...) @printf(i8* getelementptr inbounds ([4 x i8], [4 x i8]* @.str.2, i64 0, i64 0), i8* %185)
  br label %187

187:                                              ; preds = %181
  %188 = load i32, i32* %14, align 4
  %189 = add nsw i32 %188, 1
  store i32 %189, i32* %14, align 4
  br label %176

190:                                              ; preds = %176
  ret i32 0
}

declare dso_local i32 @__isoc99_scanf(i8*, ...) #1

; Function Attrs: nounwind
declare dso_local i8* @strcpy(i8*, i8*) #2

declare dso_local i32 @printf(i8*, ...) #1


!llvm.module.flags = !{!0}
!llvm.ident = !{!1}

!0 = !{i32 1, !"wchar_size", i32 4}
!1 = !{!"clang version 10.0.0-4ubuntu1 "}
